target datalayout = "e-m:e-p270:32:32-p271:32:32-p272:64:64-i64:64-i128:128-f80:128-n8:16:32:64-S128"
target triple = "x86_64-pc-linux-gnu"

%struct.H5O_shmesg_table_t = type { i64, i32, i32 }

@H5O_init_g = external global i8, align 1
@H5_libterm_g = external global i8, align 1
@.str.4 = private unnamed_addr constant [12 x i8] c"%*s%-*s %u\0A\00", align 1
@.str.5 = private unnamed_addr constant [1 x i8] zeroinitializer, align 1
@.str.6 = private unnamed_addr constant [9 x i8] c"Version:\00", align 1
@.str.7 = private unnamed_addr constant [19 x i8] c"%*s%-*s %lu (rel)\0A\00", align 1
@.str.8 = private unnamed_addr constant [30 x i8] c"Shared message table address:\00", align 1
@.str.9 = private unnamed_addr constant [19 x i8] c"Number of indexes:\00", align 1

; Function Attrs: nounwind uwtable
define internal i32 @H5O__shmesg_debug(ptr noundef %0, ptr noundef %1, ptr noundef %2, i32 noundef %3, i32 noundef %4) #0 {
  %6 = alloca ptr, align 8
  %7 = alloca ptr, align 8
  %8 = alloca ptr, align 8
  %9 = alloca i32, align 4
  %10 = alloca i32, align 4
  %11 = alloca ptr, align 8
  store ptr %0, ptr %6, align 8, !tbaa !3
  store ptr %1, ptr %7, align 8, !tbaa !18
  store ptr %2, ptr %8, align 8, !tbaa !31
  store i32 %3, ptr %9, align 4, !tbaa !10
  store i32 %4, ptr %10, align 4, !tbaa !10
  call void @llvm.lifetime.start.p0(i64 8, ptr %11) #8
  %12 = load ptr, ptr %7, align 8, !tbaa !18
  store ptr %12, ptr %11, align 8, !tbaa !23
  %13 = load i8, ptr @H5O_init_g, align 1, !tbaa !19, !range !21, !noundef !22
  %14 = trunc i8 %13 to i1
  br i1 %14, label %19, label %15

15:                                               ; preds = %5
  %16 = load i8, ptr @H5_libterm_g, align 1, !tbaa !19, !range !21, !noundef !22
  %17 = trunc i8 %16 to i1
  %18 = xor i1 %17, true
  br label %19

19:                                               ; preds = %15, %5
  %20 = phi i1 [ true, %5 ], [ %18, %15 ]
  %21 = xor i1 %20, true
  %22 = xor i1 %21, true
  %23 = zext i1 %22 to i32
  %24 = sext i32 %23 to i64
  %25 = call i64 @llvm.expect.i64(i64 %24, i64 1)
  %26 = icmp ne i64 %25, 0
  br i1 %26, label %27, label %49

27:                                               ; preds = %19
  %28 = load ptr, ptr %8, align 8, !tbaa !31
  %29 = load i32, ptr %9, align 4, !tbaa !10
  %30 = load i32, ptr %10, align 4, !tbaa !10
  %31 = load ptr, ptr %11, align 8, !tbaa !23
  %32 = getelementptr inbounds nuw %struct.H5O_shmesg_table_t, ptr %31, i32 0, i32 1
  %33 = load i32, ptr %32, align 8, !tbaa !26
  %34 = call i32 (ptr, ptr, ...) @fprintf(ptr noundef %28, ptr noundef @.str.4, i32 noundef %29, ptr noundef @.str.5, i32 noundef %30, ptr noundef @.str.6, i32 noundef %33) #8
  %35 = load ptr, ptr %8, align 8, !tbaa !31
  %36 = load i32, ptr %9, align 4, !tbaa !10
  %37 = load i32, ptr %10, align 4, !tbaa !10
  %38 = load ptr, ptr %11, align 8, !tbaa !23
  %39 = getelementptr inbounds nuw %struct.H5O_shmesg_table_t, ptr %38, i32 0, i32 0
  %40 = load i64, ptr %39, align 8, !tbaa !29
  %41 = call i32 (ptr, ptr, ...) @fprintf(ptr noundef %35, ptr noundef @.str.7, i32 noundef %36, ptr noundef @.str.5, i32 noundef %37, ptr noundef @.str.8, i64 noundef %40) #8
  %42 = load ptr, ptr %8, align 8, !tbaa !31
  %43 = load i32, ptr %9, align 4, !tbaa !10
  %44 = load i32, ptr %10, align 4, !tbaa !10
  %45 = load ptr, ptr %11, align 8, !tbaa !23
  %46 = getelementptr inbounds nuw %struct.H5O_shmesg_table_t, ptr %45, i32 0, i32 2
  %47 = load i32, ptr %46, align 4, !tbaa !28
  %48 = call i32 (ptr, ptr, ...) @fprintf(ptr noundef %42, ptr noundef @.str.4, i32 noundef %43, ptr noundef @.str.5, i32 noundef %44, ptr noundef @.str.9, i32 noundef %47) #8
  br label %49

49:                                               ; preds = %27, %19
  call void @llvm.lifetime.end.p0(i64 8, ptr %11) #8
  ret i32 0
}