; Function Attrs: nofree nounwind uwtable
define internal noundef i32 @H5O__shmesg_debug(ptr readnone captures(none) %0, ptr noundef readonly captures(none) %1, ptr noundef captures(none) %2, i32 noundef %3, i32 noundef %4) #1 {
  %6 = load i8, ptr @H5O_init_g, align 1, !tbaa !8, !range !10, !noundef !11
  %7 = trunc nuw i8 %6 to i1
  %8 = load i8, ptr @H5_libterm_g, align 1, !range !10
  %9 = trunc nuw i8 %8 to i1
  %10 = xor i1 %9, true
  %11 = select i1 %7, i1 true, i1 %10
  br i1 %11, label %12, label %21, !prof !12

12:                                               ; preds = %5
  %13 = getelementptr inbounds nuw i8, ptr %1, i64 8
  %14 = load i32, ptr %13, align 8, !tbaa !16
  %15 = tail call i32 (ptr, ptr, ...) @fprintf(ptr noundef %2, ptr noundef nonnull @.str.4, i32 noundef %3, ptr noundef nonnull @.str.5, i32 noundef %4, ptr noundef nonnull @.str.6, i32 noundef %14) #8
  %16 = load i64, ptr %1, align 8, !tbaa !20
  %17 = tail call i32 (ptr, ptr, ...) @fprintf(ptr noundef %2, ptr noundef nonnull @.str.7, i32 noundef %3, ptr noundef nonnull @.str.5, i32 noundef %4, ptr noundef nonnull @.str.8, i64 noundef %16) #8
  %18 = getelementptr inbounds nuw i8, ptr %1, i64 12
  %19 = load i32, ptr %18, align 4, !tbaa !19
  %20 = tail call i32 (ptr, ptr, ...) @fprintf(ptr noundef %2, ptr noundef nonnull @.str.4, i32 noundef %3, ptr noundef nonnull @.str.5, i32 noundef %4, ptr noundef nonnull @.str.9, i32 noundef %19) #8
  br label %21

21:                                               ; preds = %12, %5
  ret i32 0
}